target datalayout = "e-m:e-p270:32:32-p271:32:32-p272:64:64-i64:64-i128:128-f80:128-n8:16:32:64-S128"
target triple = "x86_64-pc-linux-gnu"

%struct._GLFWlibrary = type { i32, %struct.GLFWallocator, %struct._GLFWplatform, %struct.anon, ptr, ptr, ptr, ptr, i32, i32, [16 x %struct._GLFWjoystick], ptr, i32, %struct._GLFWtls, %struct._GLFWtls, %struct._GLFWmutex, %struct.anon.8, %struct.anon.9, %struct.anon.10, %struct.anon.11, %struct.anon.12, %struct._GLFWlibraryWayland, %struct._GLFWlibraryX11, %struct._GLFWlibraryNull, %struct._GLFWlibraryGLX, %struct._GLFWlibraryLinux }
%struct.GLFWallocator = type { ptr, ptr, ptr, ptr }
%struct._GLFWplatform = type { i32, ptr, ptr, ptr, ptr, ptr, ptr, ptr, ptr, ptr, ptr, ptr, ptr, ptr, ptr, ptr, ptr, ptr, ptr, ptr, ptr, ptr, ptr, ptr, ptr, ptr, ptr, ptr, ptr, ptr, ptr, ptr, ptr, ptr, ptr, ptr, ptr, ptr, ptr, ptr, ptr, ptr, ptr, ptr, ptr, ptr, ptr, ptr, ptr, ptr, ptr, ptr, ptr, ptr, ptr, ptr, ptr, ptr, ptr, ptr, ptr, ptr, ptr, ptr, ptr, ptr, ptr, ptr, ptr, ptr, ptr, ptr }
%struct.anon = type { %struct._GLFWinitconfig, %struct._GLFWfbconfig, %struct._GLFWwndconfig, %struct._GLFWctxconfig, i32 }
%struct._GLFWinitconfig = type { i32, i32, i32, ptr, %struct.anon.0, %struct.anon.1, %struct.anon.2 }
%struct.anon.0 = type { i32, i32 }
%struct.anon.1 = type { i32 }
%struct.anon.2 = type { i32 }
%struct._GLFWfbconfig = type { i32, i32, i32, i32, i32, i32, i32, i32, i32, i32, i32, i32, i32, i32, i32, i32, i64 }
%struct._GLFWwndconfig = type { i32, i32, i32, i32, ptr, i32, i32, i32, i32, i32, i32, i32, i32, i32, i32, i32, i32, %struct.anon.3, %struct.anon.4, %struct.anon.5, %struct.anon.6 }
%struct.anon.3 = type { [256 x i8] }
%struct.anon.4 = type { [256 x i8], [256 x i8] }
%struct.anon.5 = type { i32, i32 }
%struct.anon.6 = type { [256 x i8] }
%struct._GLFWctxconfig = type { i32, i32, i32, i32, i32, i32, i32, i32, i32, i32, ptr, %struct.anon.7 }
%struct.anon.7 = type { i32 }
%struct._GLFWjoystick = type { i32, i32, ptr, i32, ptr, i32, ptr, i32, [128 x i8], ptr, [33 x i8], ptr, %struct._GLFWjoystickLinux }
%struct._GLFWjoystickLinux = type { i32, [4096 x i8], [512 x i32], [64 x i32], [64 x %struct.input_absinfo], [4 x [2 x i32]] }
%struct.input_absinfo = type { i32, i32, i32, i32, i32, i32 }
%struct._GLFWtls = type { %struct._GLFWtlsPOSIX }
%struct._GLFWtlsPOSIX = type { i32, i32 }
%struct._GLFWmutex = type { %struct._GLFWmutexPOSIX }
%struct._GLFWmutexPOSIX = type { i32, %union.pthread_mutex_t }
%union.pthread_mutex_t = type { %struct.__pthread_mutex_s }
%struct.__pthread_mutex_s = type { i32, i32, i32, i32, i32, i16, i16, %struct.__pthread_internal_list }
%struct.__pthread_internal_list = type { ptr, ptr }
%struct.anon.8 = type { i64, %struct._GLFWtimerPOSIX }
%struct._GLFWtimerPOSIX = type { i32, i64 }
%struct.anon.9 = type { i32, ptr, i32, i32, i32, i32, i32, i32, i32, i32, i32, i32, i32, i32, i32, i32, i32, i32, i32, i32, ptr, ptr, ptr, ptr, ptr, ptr, ptr, ptr, ptr, ptr, ptr, ptr, ptr, ptr, ptr, ptr, ptr, ptr, ptr }
%struct.anon.10 = type { ptr, ptr, ptr, ptr, ptr, ptr, ptr, ptr }
%struct.anon.11 = type { i32, ptr, [2 x ptr], ptr, i32, i32, i32, i32, i32, i32, i32 }
%struct.anon.12 = type { ptr, ptr }
%struct._GLFWlibraryWayland = type { ptr, ptr, ptr, ptr, ptr, ptr, ptr, ptr, ptr, ptr, ptr, ptr, ptr, ptr, ptr, ptr, ptr, ptr, ptr, i32, ptr, ptr, ptr, ptr, i32, ptr, ptr, ptr, ptr, ptr, i32, i32, i32, i32, i32, i32, i32, ptr, [256 x i16], [349 x i16], [349 x [5 x i8]], %struct.anon.13, ptr, ptr, %struct.anon.14, %struct.anon.15, %struct.anon.16, %struct.anon.17 }
%struct.anon.13 = type { ptr, ptr, ptr, ptr, ptr, i32, i32, i32, i32, i32, i32, i32, ptr, ptr, ptr, ptr, ptr, ptr, ptr, ptr, ptr, ptr, ptr, ptr, ptr, ptr, ptr, ptr, ptr, ptr, ptr, ptr }
%struct.anon.14 = type { ptr, ptr, ptr, ptr, ptr, ptr, ptr, ptr, ptr, ptr, ptr, ptr, ptr, ptr, ptr, ptr, ptr, ptr, ptr, ptr }
%struct.anon.15 = type { ptr, ptr, ptr, ptr, ptr }
%struct.anon.16 = type { ptr, ptr, ptr, ptr }
%struct.anon.17 = type { ptr, ptr, ptr, i32, ptr, ptr, ptr, ptr, ptr, ptr, ptr, ptr, ptr, ptr, ptr, ptr, ptr, ptr, ptr, ptr, ptr, ptr, ptr, ptr, ptr, ptr, ptr, ptr, ptr }
%struct._GLFWlibraryX11 = type { ptr, i32, i64, float, float, i64, i64, i32, ptr, ptr, i32, ptr, ptr, [349 x [5 x i8]], [256 x i16], [349 x i16], double, double, ptr, [2 x i32], i64, i64, i64, i64, i64, i64, i64, i64, i64, i64, i64, i64, i64, i64, i64, i64, i64, i64, i64, i64, i64, i64, i64, i64, i64, i64, i64, i64, i64, i64, i64, i64, i64, i64, i64, i64, i64, i64, i64, i64, i64, i64, i64, i64, i64, i64, i64, i64, i64, i64, %struct.anon.18, %struct.anon.19, %struct.anon.20, %struct.anon.21, %struct.anon.22, %struct.anon.23, %struct.anon.24, %struct.anon.25, %struct.anon.26, %struct.anon.27, %struct.anon.28, %struct.anon.29, %struct.anon.30 }
%struct.anon.18 = type { ptr, i32, ptr, ptr, ptr, ptr, ptr, ptr, ptr, ptr, ptr, ptr, ptr, ptr, ptr, ptr, ptr, ptr, ptr, ptr, ptr, ptr, ptr, ptr, ptr, ptr, ptr, ptr, ptr, ptr, ptr, ptr, ptr, ptr, ptr, ptr, ptr, ptr, ptr, ptr, ptr, ptr, ptr, ptr, ptr, ptr, ptr, ptr, ptr, ptr, ptr, ptr, ptr, ptr, ptr, ptr, ptr, ptr, ptr, ptr, ptr, ptr, ptr, ptr, ptr, ptr, ptr, ptr, ptr, ptr, ptr, ptr, ptr, ptr, ptr, ptr, ptr, ptr, ptr, ptr, ptr, ptr, ptr, ptr, ptr, ptr, ptr, ptr }
%struct.anon.19 = type { ptr, ptr, ptr, ptr }
%struct.anon.20 = type { i32, ptr, i32, i32, i32, i32, i32, i32, ptr, ptr, ptr, ptr, ptr, ptr, ptr, ptr, ptr, ptr, ptr, ptr, ptr, ptr, ptr, ptr, ptr }
%struct.anon.21 = type { i32, i32, i32, i32, i32, i32, i32, i32, ptr, ptr, ptr, ptr, ptr, ptr, ptr, ptr, ptr }
%struct.anon.22 = type { i32, i32, i32, i32, i32 }
%struct.anon.23 = type { i32, i64, i64 }
%struct.anon.24 = type { ptr, ptr, ptr, ptr, ptr, ptr, ptr }
%struct.anon.25 = type { i32, ptr, i32, i32, ptr, ptr, ptr }
%struct.anon.26 = type { ptr, ptr }
%struct.anon.27 = type { i32, ptr, i32, i32, ptr, ptr, ptr, ptr }
%struct.anon.28 = type { i32, ptr, i32, i32, i32, i32, i32, ptr, ptr }
%struct.anon.29 = type { i32, ptr, i32, i32, i32, i32, ptr, ptr, ptr }
%struct.anon.30 = type { i32, ptr, i32, i32, i32, i32, ptr, ptr, ptr, ptr }
%struct._GLFWlibraryNull = type { i32, i32, ptr, ptr, [121 x i16], [349 x i8] }
%struct._GLFWlibraryGLX = type { i32, i32, i32, i32, ptr, ptr, ptr, ptr, ptr, ptr, ptr, ptr, ptr, ptr, ptr, ptr, ptr, ptr, ptr, ptr, ptr, ptr, ptr, ptr, i32, i32, i32, i32, i32, i32, i32, i32, i32, i32, i32, i32 }
%struct._GLFWlibraryLinux = type { i32, i32, %struct.re_pattern_buffer, i32, i32 }
%struct.re_pattern_buffer = type { ptr, i64, i64, i64, ptr, ptr, i64, i8 }
%struct.wl_interface = type { ptr, i32, i32, ptr, i32, ptr }
%struct._GLFWwindow = type { ptr, i32, i32, i32, i32, i32, i32, i32, ptr, i32, %struct.GLFWvidmode, ptr, ptr, ptr, i32, i32, i32, i32, i32, i32, i32, i32, i32, i32, [8 x i8], [349 x i8], double, double, i32, %struct._GLFWcontext, %struct.anon.33, %struct._GLFWwindowWayland, %struct._GLFWwindowX11, %struct._GLFWwindowNull }
%struct.GLFWvidmode = type { i32, i32, i32, i32, i32, i32 }
%struct._GLFWcontext = type { i32, i32, i32, i32, i32, i32, i32, i32, i32, i32, i32, ptr, ptr, ptr, ptr, ptr, ptr, ptr, ptr, ptr, %struct.anon.31, %struct.anon.32, %struct._GLFWcontextGLX }
%struct.anon.31 = type { ptr, ptr, ptr, ptr }
%struct.anon.32 = type { ptr, i32, i32, ptr }
%struct._GLFWcontextGLX = type { ptr, i64 }
%struct.anon.33 = type { ptr, ptr, ptr, ptr, ptr, ptr, ptr, ptr, ptr, ptr, ptr, ptr, ptr, ptr, ptr, ptr, ptr }
%struct._GLFWwindowWayland = type { i32, i32, i32, i32, i32, i32, i32, i32, i32, i32, i32, ptr, ptr, %struct.anon.34, %struct.anon.35, %struct.anon.36, %struct.anon.37, ptr, double, double, ptr, i32, ptr, i64, i64, ptr, i32, ptr, ptr, ptr, ptr, ptr, ptr, %struct.anon.38 }
%struct.anon.34 = type { ptr }
%struct.anon.35 = type { i32, i32, i32, i32, i32, i32 }
%struct.anon.36 = type { ptr, ptr, ptr, i32 }
%struct.anon.37 = type { ptr }
%struct.anon.38 = type { i32, ptr, %struct._GLFWfallbackEdgeWayland, %struct._GLFWfallbackEdgeWayland, %struct._GLFWfallbackEdgeWayland, %struct._GLFWfallbackEdgeWayland, ptr }
%struct._GLFWfallbackEdgeWayland = type { ptr, ptr, ptr }
%struct._GLFWwindowX11 = type { i64, i64, i64, ptr, i32, i32, i32, i32, i32, i32, i32, i32, i32, i32, i32, i32, [256 x i64] }
%struct._GLFWwindowNull = type { i32, i32, i32, i32, i32, i32, i32, i32, i32, i32, i32, float }

@_glfw = external global %struct._GLFWlibrary, align 8
@_glfw_wl_region_interface = external constant %struct.wl_interface, align 8

; Function Attrs: inlinehint nounwind uwtable
define internal void @wl_region_destroy(ptr noundef %0) #1 {
  %2 = alloca ptr, align 8
  store ptr %0, ptr %2, align 8, !tbaa !229
  %3 = load ptr, ptr getelementptr inbounds nuw (%struct.anon.14, ptr getelementptr inbounds nuw (%struct._GLFWlibraryWayland, ptr getelementptr inbounds nuw (%struct._GLFWlibrary, ptr @_glfw, i32 0, i32 21), i32 0, i32 44), i32 0, i32 19), align 8, !tbaa !142
  %4 = load ptr, ptr %2, align 8, !tbaa !229
  %5 = load ptr, ptr getelementptr inbounds nuw (%struct.anon.14, ptr getelementptr inbounds nuw (%struct._GLFWlibraryWayland, ptr getelementptr inbounds nuw (%struct._GLFWlibrary, ptr @_glfw, i32 0, i32 21), i32 0, i32 44), i32 0, i32 18), align 8, !tbaa !140
  %6 = load ptr, ptr %2, align 8, !tbaa !229
  %7 = call i32 %5(ptr noundef %6)
  %8 = call ptr (ptr, i32, ptr, i32, i32, ...) %3(ptr noundef %4, i32 noundef 0, ptr noundef null, i32 noundef %7, i32 noundef 1)
  ret void
}

; Function Attrs: inlinehint nounwind uwtable
define internal void @wl_surface_set_opaque_region(ptr noundef %0, ptr noundef %1) #1 {
  %3 = alloca ptr, align 8
  %4 = alloca ptr, align 8
  store ptr %0, ptr %3, align 8, !tbaa !141
  store ptr %1, ptr %4, align 8, !tbaa !229
  %5 = load ptr, ptr getelementptr inbounds nuw (%struct.anon.14, ptr getelementptr inbounds nuw (%struct._GLFWlibraryWayland, ptr getelementptr inbounds nuw (%struct._GLFWlibrary, ptr @_glfw, i32 0, i32 21), i32 0, i32 44), i32 0, i32 19), align 8, !tbaa !142
  %6 = load ptr, ptr %3, align 8, !tbaa !141
  %7 = load ptr, ptr getelementptr inbounds nuw (%struct.anon.14, ptr getelementptr inbounds nuw (%struct._GLFWlibraryWayland, ptr getelementptr inbounds nuw (%struct._GLFWlibrary, ptr @_glfw, i32 0, i32 21), i32 0, i32 44), i32 0, i32 18), align 8, !tbaa !140
  %8 = load ptr, ptr %3, align 8, !tbaa !141
  %9 = call i32 %7(ptr noundef %8)
  %10 = load ptr, ptr %4, align 8, !tbaa !229
  %11 = call ptr (ptr, i32, ptr, i32, i32, ...) %5(ptr noundef %6, i32 noundef 4, ptr noundef null, i32 noundef %9, i32 noundef 0, ptr noundef %10)
  ret void
}

; Function Attrs: inlinehint nounwind uwtable
define internal void @wl_region_add(ptr noundef %0, i32 noundef %1, i32 noundef %2, i32 noundef %3, i32 noundef %4) #1 {
  %6 = alloca ptr, align 8
  %7 = alloca i32, align 4
  %8 = alloca i32, align 4
  %9 = alloca i32, align 4
  %10 = alloca i32, align 4
  store ptr %0, ptr %6, align 8, !tbaa !229
  store i32 %1, ptr %7, align 4, !tbaa !129
  store i32 %2, ptr %8, align 4, !tbaa !129
  store i32 %3, ptr %9, align 4, !tbaa !129
  store i32 %4, ptr %10, align 4, !tbaa !129
  %11 = load ptr, ptr getelementptr inbounds nuw (%struct.anon.14, ptr getelementptr inbounds nuw (%struct._GLFWlibraryWayland, ptr getelementptr inbounds nuw (%struct._GLFWlibrary, ptr @_glfw, i32 0, i32 21), i32 0, i32 44), i32 0, i32 19), align 8, !tbaa !142
  %12 = load ptr, ptr %6, align 8, !tbaa !229
  %13 = load ptr, ptr getelementptr inbounds nuw (%struct.anon.14, ptr getelementptr inbounds nuw (%struct._GLFWlibraryWayland, ptr getelementptr inbounds nuw (%struct._GLFWlibrary, ptr @_glfw, i32 0, i32 21), i32 0, i32 44), i32 0, i32 18), align 8, !tbaa !140
  %14 = load ptr, ptr %6, align 8, !tbaa !229
  %15 = call i32 %13(ptr noundef %14)
  %16 = load i32, ptr %7, align 4, !tbaa !129
  %17 = load i32, ptr %8, align 4, !tbaa !129
  %18 = load i32, ptr %9, align 4, !tbaa !129
  %19 = load i32, ptr %10, align 4, !tbaa !129
  %20 = call ptr (ptr, i32, ptr, i32, i32, ...) %11(ptr noundef %12, i32 noundef 1, ptr noundef null, i32 noundef %15, i32 noundef 0, i32 noundef %16, i32 noundef %17, i32 noundef %18, i32 noundef %19)
  ret void
}

; Function Attrs: inlinehint nounwind uwtable
define internal ptr @wl_compositor_create_region(ptr noundef %0) #1 {
  %2 = alloca ptr, align 8
  %3 = alloca ptr, align 8
  store ptr %0, ptr %2, align 8, !tbaa !139
  call void @llvm.lifetime.start.p0(i64 8, ptr %3) #9
  %4 = load ptr, ptr getelementptr inbounds nuw (%struct.anon.14, ptr getelementptr inbounds nuw (%struct._GLFWlibraryWayland, ptr getelementptr inbounds nuw (%struct._GLFWlibrary, ptr @_glfw, i32 0, i32 21), i32 0, i32 44), i32 0, i32 19), align 8, !tbaa !142
  %5 = load ptr, ptr %2, align 8, !tbaa !139
  %6 = load ptr, ptr getelementptr inbounds nuw (%struct.anon.14, ptr getelementptr inbounds nuw (%struct._GLFWlibraryWayland, ptr getelementptr inbounds nuw (%struct._GLFWlibrary, ptr @_glfw, i32 0, i32 21), i32 0, i32 44), i32 0, i32 18), align 8, !tbaa !140
  %7 = load ptr, ptr %2, align 8, !tbaa !139
  %8 = call i32 %6(ptr noundef %7)
  %9 = call ptr (ptr, i32, ptr, i32, i32, ...) %4(ptr noundef %5, i32 noundef 1, ptr noundef @_glfw_wl_region_interface, i32 noundef %8, i32 noundef 0, ptr noundef null)
  store ptr %9, ptr %3, align 8, !tbaa !272
  %10 = load ptr, ptr %3, align 8, !tbaa !272
  call void @llvm.lifetime.end.p0(i64 8, ptr %3) #9
  ret ptr %10
}

; Function Attrs: nounwind uwtable
define internal void @setContentAreaOpaque(ptr noundef %0) #0 {
  %2 = alloca ptr, align 8
  %3 = alloca ptr, align 8
  %4 = alloca i32, align 4
  store ptr %0, ptr %2, align 8, !tbaa !3
  call void @llvm.lifetime.start.p0(i64 8, ptr %3) #9
  %5 = load ptr, ptr getelementptr inbounds nuw (%struct._GLFWlibraryWayland, ptr getelementptr inbounds nuw (%struct._GLFWlibrary, ptr @_glfw, i32 0, i32 21), i32 0, i32 2), align 8, !tbaa !8
  %6 = call ptr @wl_compositor_create_region(ptr noundef %5)
  store ptr %6, ptr %3, align 8, !tbaa !229
  %7 = load ptr, ptr %3, align 8, !tbaa !229
  %8 = icmp ne ptr %7, null
  br i1 %8, label %10, label %9

9:                                                ; preds = %1
  store i32 1, ptr %4, align 4
  br label %26

10:                                               ; preds = %1
  %11 = load ptr, ptr %3, align 8, !tbaa !229
  %12 = load ptr, ptr %2, align 8, !tbaa !3
  %13 = getelementptr inbounds nuw %struct._GLFWwindow, ptr %12, i32 0, i32 31
  %14 = getelementptr inbounds nuw %struct._GLFWwindowWayland, ptr %13, i32 0, i32 0
  %15 = load i32, ptr %14, align 8, !tbaa !143
  %16 = load ptr, ptr %2, align 8, !tbaa !3
  %17 = getelementptr inbounds nuw %struct._GLFWwindow, ptr %16, i32 0, i32 31
  %18 = getelementptr inbounds nuw %struct._GLFWwindowWayland, ptr %17, i32 0, i32 1
  %19 = load i32, ptr %18, align 4, !tbaa !146
  call void @wl_region_add(ptr noundef %11, i32 noundef 0, i32 noundef 0, i32 noundef %15, i32 noundef %19)
  %20 = load ptr, ptr %2, align 8, !tbaa !3
  %21 = getelementptr inbounds nuw %struct._GLFWwindow, ptr %20, i32 0, i32 31
  %22 = getelementptr inbounds nuw %struct._GLFWwindowWayland, ptr %21, i32 0, i32 11
  %23 = load ptr, ptr %22, align 8, !tbaa !137
  %24 = load ptr, ptr %3, align 8, !tbaa !229
  call void @wl_surface_set_opaque_region(ptr noundef %23, ptr noundef %24)
  %25 = load ptr, ptr %3, align 8, !tbaa !229
  call void @wl_region_destroy(ptr noundef %25)
  store i32 0, ptr %4, align 4
  br label %26

26:                                               ; preds = %10, %9
  call void @llvm.lifetime.end.p0(i64 8, ptr %3) #9
  %27 = load i32, ptr %4, align 4
  switch i32 %27, label %29 [
    i32 0, label %28
    i32 1, label %28
  ]

28:                                               ; preds = %26, %26
  ret void

29:                                               ; preds = %26
  unreachable
}

; Function Attrs: nounwind uwtable
define internal void @resizeFramebuffer(ptr noundef %0) #0 {
  %2 = alloca ptr, align 8
  store ptr %0, ptr %2, align 8, !tbaa !3
  %3 = load ptr, ptr %2, align 8, !tbaa !3
  %4 = getelementptr inbounds nuw %struct._GLFWwindow, ptr %3, i32 0, i32 31
  %5 = getelementptr inbounds nuw %struct._GLFWwindowWayland, ptr %4, i32 0, i32 27
  %6 = load ptr, ptr %5, align 8, !tbaa !128
  %7 = icmp ne ptr %6, null
  br i1 %7, label %8, label %35

8:                                                ; preds = %1
  %9 = load ptr, ptr %2, align 8, !tbaa !3
  %10 = getelementptr inbounds nuw %struct._GLFWwindow, ptr %9, i32 0, i32 31
  %11 = getelementptr inbounds nuw %struct._GLFWwindowWayland, ptr %10, i32 0, i32 0
  %12 = load i32, ptr %11, align 8, !tbaa !143
  %13 = load ptr, ptr %2, align 8, !tbaa !3
  %14 = getelementptr inbounds nuw %struct._GLFWwindow, ptr %13, i32 0, i32 31
  %15 = getelementptr inbounds nuw %struct._GLFWwindowWayland, ptr %14, i32 0, i32 26
  %16 = load i32, ptr %15, align 8, !tbaa !144
  %17 = mul i32 %12, %16
  %18 = udiv i32 %17, 120
  %19 = load ptr, ptr %2, align 8, !tbaa !3
  %20 = getelementptr inbounds nuw %struct._GLFWwindow, ptr %19, i32 0, i32 31
  %21 = getelementptr inbounds nuw %struct._GLFWwindowWayland, ptr %20, i32 0, i32 2
  store i32 %18, ptr %21, align 8, !tbaa !145
  %22 = load ptr, ptr %2, align 8, !tbaa !3
  %23 = getelementptr inbounds nuw %struct._GLFWwindow, ptr %22, i32 0, i32 31
  %24 = getelementptr inbounds nuw %struct._GLFWwindowWayland, ptr %23, i32 0, i32 1
  %25 = load i32, ptr %24, align 4, !tbaa !146
  %26 = load ptr, ptr %2, align 8, !tbaa !3
  %27 = getelementptr inbounds nuw %struct._GLFWwindow, ptr %26, i32 0, i32 31
  %28 = getelementptr inbounds nuw %struct._GLFWwindowWayland, ptr %27, i32 0, i32 26
  %29 = load i32, ptr %28, align 8, !tbaa !144
  %30 = mul i32 %25, %29
  %31 = udiv i32 %30, 120
  %32 = load ptr, ptr %2, align 8, !tbaa !3
  %33 = getelementptr inbounds nuw %struct._GLFWwindow, ptr %32, i32 0, i32 31
  %34 = getelementptr inbounds nuw %struct._GLFWwindowWayland, ptr %33, i32 0, i32 3
  store i32 %31, ptr %34, align 4, !tbaa !147
  br label %60

35:                                               ; preds = %1
  %36 = load ptr, ptr %2, align 8, !tbaa !3
  %37 = getelementptr inbounds nuw %struct._GLFWwindow, ptr %36, i32 0, i32 31
  %38 = getelementptr inbounds nuw %struct._GLFWwindowWayland, ptr %37, i32 0, i32 0
  %39 = load i32, ptr %38, align 8, !tbaa !143
  %40 = load ptr, ptr %2, align 8, !tbaa !3
  %41 = getelementptr inbounds nuw %struct._GLFWwindow, ptr %40, i32 0, i32 31
  %42 = getelementptr inbounds nuw %struct._GLFWwindowWayland, ptr %41, i32 0, i32 21
  %43 = load i32, ptr %42, align 8, !tbaa !136
  %44 = mul nsw i32 %39, %43
  %45 = load ptr, ptr %2, align 8, !tbaa !3
  %46 = getelementptr inbounds nuw %struct._GLFWwindow, ptr %45, i32 0, i32 31
  %47 = getelementptr inbounds nuw %struct._GLFWwindowWayland, ptr %46, i32 0, i32 2
  store i32 %44, ptr %47, align 8, !tbaa !145
  %48 = load ptr, ptr %2, align 8, !tbaa !3
  %49 = getelementptr inbounds nuw %struct._GLFWwindow, ptr %48, i32 0, i32 31
  %50 = getelementptr inbounds nuw %struct._GLFWwindowWayland, ptr %49, i32 0, i32 1
  %51 = load i32, ptr %50, align 4, !tbaa !146
  %52 = load ptr, ptr %2, align 8, !tbaa !3
  %53 = getelementptr inbounds nuw %struct._GLFWwindow, ptr %52, i32 0, i32 31
  %54 = getelementptr inbounds nuw %struct._GLFWwindowWayland, ptr %53, i32 0, i32 21
  %55 = load i32, ptr %54, align 8, !tbaa !136
  %56 = mul nsw i32 %51, %55
  %57 = load ptr, ptr %2, align 8, !tbaa !3
  %58 = getelementptr inbounds nuw %struct._GLFWwindow, ptr %57, i32 0, i32 31
  %59 = getelementptr inbounds nuw %struct._GLFWwindowWayland, ptr %58, i32 0, i32 3
  store i32 %56, ptr %59, align 4, !tbaa !147
  br label %60

60:                                               ; preds = %35, %8
  %61 = load ptr, ptr %2, align 8, !tbaa !3
  %62 = getelementptr inbounds nuw %struct._GLFWwindow, ptr %61, i32 0, i32 31
  %63 = getelementptr inbounds nuw %struct._GLFWwindowWayland, ptr %62, i32 0, i32 13
  %64 = getelementptr inbounds nuw %struct.anon.34, ptr %63, i32 0, i32 0
  %65 = load ptr, ptr %64, align 8, !tbaa !148
  %66 = icmp ne ptr %65, null
  br i1 %66, label %67, label %82

67:                                               ; preds = %60
  %68 = load ptr, ptr getelementptr inbounds nuw (%struct.anon.16, ptr getelementptr inbounds nuw (%struct._GLFWlibraryWayland, ptr getelementptr inbounds nuw (%struct._GLFWlibrary, ptr @_glfw, i32 0, i32 21), i32 0, i32 46), i32 0, i32 3), align 8, !tbaa !149
  %69 = load ptr, ptr %2, align 8, !tbaa !3
  %70 = getelementptr inbounds nuw %struct._GLFWwindow, ptr %69, i32 0, i32 31
  %71 = getelementptr inbounds nuw %struct._GLFWwindowWayland, ptr %70, i32 0, i32 13
  %72 = getelementptr inbounds nuw %struct.anon.34, ptr %71, i32 0, i32 0
  %73 = load ptr, ptr %72, align 8, !tbaa !148
  %74 = load ptr, ptr %2, align 8, !tbaa !3
  %75 = getelementptr inbounds nuw %struct._GLFWwindow, ptr %74, i32 0, i32 31
  %76 = getelementptr inbounds nuw %struct._GLFWwindowWayland, ptr %75, i32 0, i32 2
  %77 = load i32, ptr %76, align 8, !tbaa !145
  %78 = load ptr, ptr %2, align 8, !tbaa !3
  %79 = getelementptr inbounds nuw %struct._GLFWwindow, ptr %78, i32 0, i32 31
  %80 = getelementptr inbounds nuw %struct._GLFWwindowWayland, ptr %79, i32 0, i32 3
  %81 = load i32, ptr %80, align 4, !tbaa !147
  call void %68(ptr noundef %73, i32 noundef %77, i32 noundef %81, i32 noundef 0, i32 noundef 0)
  br label %82

82:                                               ; preds = %67, %60
  %83 = load ptr, ptr %2, align 8, !tbaa !3
  %84 = getelementptr inbounds nuw %struct._GLFWwindow, ptr %83, i32 0, i32 31
  %85 = getelementptr inbounds nuw %struct._GLFWwindowWayland, ptr %84, i32 0, i32 9
  %86 = load i32, ptr %85, align 4, !tbaa !150
  %87 = icmp ne i32 %86, 0
  br i1 %87, label %90, label %88

88:                                               ; preds = %82
  %89 = load ptr, ptr %2, align 8, !tbaa !3
  call void @setContentAreaOpaque(ptr noundef %89)
  br label %90

90:                                               ; preds = %88, %82
  %91 = load ptr, ptr %2, align 8, !tbaa !3
  %92 = load ptr, ptr %2, align 8, !tbaa !3
  %93 = getelementptr inbounds nuw %struct._GLFWwindow, ptr %92, i32 0, i32 31
  %94 = getelementptr inbounds nuw %struct._GLFWwindowWayland, ptr %93, i32 0, i32 2
  %95 = load i32, ptr %94, align 8, !tbaa !145
  %96 = load ptr, ptr %2, align 8, !tbaa !3
  %97 = getelementptr inbounds nuw %struct._GLFWwindow, ptr %96, i32 0, i32 31
  %98 = getelementptr inbounds nuw %struct._GLFWwindowWayland, ptr %97, i32 0, i32 3
  %99 = load i32, ptr %98, align 4, !tbaa !147
  call void @_glfwInputFramebufferSize(ptr noundef %91, i32 noundef %95, i32 noundef %99)
  ret void
}