; Function Attrs: nounwind uwtable
define internal fastcc void @resizeFramebuffer(ptr noundef initializes((864, 872)) %0) unnamed_addr #0 {
  %2 = getelementptr inbounds nuw i8, ptr %0, i64 856
  %3 = getelementptr inbounds nuw i8, ptr %0, i64 1072
  %4 = load ptr, ptr %3, align 8, !tbaa !128
  %.not = icmp eq ptr %4, null
  %5 = load i32, ptr %2, align 8, !tbaa !138
  br i1 %.not, label %15, label %6

6:                                                ; preds = %1
  %7 = getelementptr inbounds nuw i8, ptr %0, i64 1064
  %8 = load i32, ptr %7, align 8, !tbaa !139
  %9 = mul i32 %8, %5
  %10 = udiv i32 %9, 120
  %11 = getelementptr inbounds nuw i8, ptr %0, i64 860
  %12 = load i32, ptr %11, align 4, !tbaa !140
  %13 = mul i32 %12, %8
  %14 = udiv i32 %13, 120
  br label %22

15:                                               ; preds = %1
  %16 = getelementptr inbounds nuw i8, ptr %0, i64 1024
  %17 = load i32, ptr %16, align 8, !tbaa !130
  %18 = mul nsw i32 %17, %5
  %19 = getelementptr inbounds nuw i8, ptr %0, i64 860
  %20 = load i32, ptr %19, align 4, !tbaa !140
  %21 = mul nsw i32 %20, %17
  br label %22

22:                                               ; preds = %15, %6
  %23 = phi i32 [ %18, %15 ], [ %10, %6 ]
  %24 = phi i32 [ %21, %15 ], [ %14, %6 ]
  %25 = getelementptr inbounds nuw i8, ptr %0, i64 864
  store i32 %23, ptr %25, align 8, !tbaa !141
  %26 = getelementptr inbounds nuw i8, ptr %0, i64 868
  store i32 %24, ptr %26, align 4, !tbaa !142
  %27 = getelementptr inbounds nuw i8, ptr %0, i64 920
  %28 = load ptr, ptr %27, align 8, !tbaa !143
  %.not22 = icmp eq ptr %28, null
  br i1 %.not22, label %31, label %29

29:                                               ; preds = %22
  %30 = load ptr, ptr getelementptr inbounds nuw (i8, ptr @_glfw, i64 137600), align 8, !tbaa !144
  tail call void %30(ptr noundef nonnull %28, i32 noundef %23, i32 noundef %24, i32 noundef 0, i32 noundef 0) #20
  br label %31

31:                                               ; preds = %29, %22
  %32 = getelementptr inbounds nuw i8, ptr %0, i64 892
  %33 = load i32, ptr %32, align 4, !tbaa !145
  %.not23 = icmp eq i32 %33, 0
  br i1 %.not23, label %34, label %setContentAreaOpaque.exit

34:                                               ; preds = %31
  %35 = load ptr, ptr getelementptr inbounds nuw (i8, ptr @_glfw, i64 133904), align 8, !tbaa !3
  %36 = load ptr, ptr getelementptr inbounds nuw (i8, ptr @_glfw, i64 137528), align 8, !tbaa !136
  %37 = load ptr, ptr getelementptr inbounds nuw (i8, ptr @_glfw, i64 137520), align 8, !tbaa !93
  %38 = tail call i32 %37(ptr noundef %35) #20
  %39 = tail call ptr (ptr, i32, ptr, i32, i32, ...) %36(ptr noundef %35, i32 noundef 1, ptr noundef nonnull @_glfw_wl_region_interface, i32 noundef %38, i32 noundef 0, ptr noundef null) #20
  %.not.i = icmp eq ptr %39, null
  br i1 %.not.i, label %setContentAreaOpaque.exit, label %40

40:                                               ; preds = %34
  %41 = load i32, ptr %2, align 8, !tbaa !138
  %42 = getelementptr inbounds nuw i8, ptr %0, i64 860
  %43 = load i32, ptr %42, align 4, !tbaa !140
  %44 = load ptr, ptr getelementptr inbounds nuw (i8, ptr @_glfw, i64 137528), align 8, !tbaa !136
  %45 = load ptr, ptr getelementptr inbounds nuw (i8, ptr @_glfw, i64 137520), align 8, !tbaa !93
  %46 = tail call i32 %45(ptr noundef nonnull %39) #20
  %47 = tail call ptr (ptr, i32, ptr, i32, i32, ...) %44(ptr noundef nonnull %39, i32 noundef 1, ptr noundef null, i32 noundef %46, i32 noundef 0, i32 noundef 0, i32 noundef 0, i32 noundef %41, i32 noundef %43) #20
  %48 = getelementptr inbounds nuw i8, ptr %0, i64 904
  %49 = load ptr, ptr %48, align 8, !tbaa !135
  %50 = load ptr, ptr getelementptr inbounds nuw (i8, ptr @_glfw, i64 137528), align 8, !tbaa !136
  %51 = load ptr, ptr getelementptr inbounds nuw (i8, ptr @_glfw, i64 137520), align 8, !tbaa !93
  %52 = tail call i32 %51(ptr noundef %49) #20
  %53 = tail call ptr (ptr, i32, ptr, i32, i32, ...) %50(ptr noundef %49, i32 noundef 4, ptr noundef null, i32 noundef %52, i32 noundef 0, ptr noundef nonnull %39) #20
  %54 = load ptr, ptr getelementptr inbounds nuw (i8, ptr @_glfw, i64 137528), align 8, !tbaa !136
  %55 = load ptr, ptr getelementptr inbounds nuw (i8, ptr @_glfw, i64 137520), align 8, !tbaa !93
  %56 = tail call i32 %55(ptr noundef nonnull %39) #20
  %57 = tail call ptr (ptr, i32, ptr, i32, i32, ...) %54(ptr noundef nonnull %39, i32 noundef 0, ptr noundef null, i32 noundef %56, i32 noundef 1) #20
  br label %setContentAreaOpaque.exit

setContentAreaOpaque.exit:                        ; preds = %40, %34, %31
  %58 = load i32, ptr %25, align 8, !tbaa !141
  %59 = load i32, ptr %26, align 4, !tbaa !142
  tail call void @_glfwInputFramebufferSize(ptr noundef nonnull %0, i32 noundef %58, i32 noundef %59) #20
  ret void
}